; Function Attrs: mustprogress uwtable
define hidden void @_ZN6Assimp9BVHLoader13ReadHierarchyEP7aiScene(ptr noundef nonnull align 8 dereferenceable(177) %this, ptr nocapture noundef writeonly %pScene) local_unnamed_addr #3 align 2 personality ptr @__gxx_personality_v0 {
invoke.cont:
  %root = alloca %"class.std::__cxx11::basic_string", align 8
  call void @_ZN6Assimp9BVHLoader12GetNextTokenB5cxx11Ev(ptr nonnull sret(%"class.std::__cxx11::basic_string") align 8 %root, ptr noundef nonnull align 8 dereferenceable(177) %this)
  %call.i.i = call noundef i32 @_ZNKSt7__cxx1112basic_stringIcSt11char_traitsIcESaIcEE7compareEPKc(ptr noundef nonnull align 8 dereferenceable(32) %root, ptr noundef nonnull @.str.9) #20
  %cmp.i.i.not = icmp eq i32 %call.i.i, 0
  br i1 %cmp.i.i.not, label %if.end, label %if.then

if.then:                                          ; preds = %invoke.cont
  invoke void @_ZN6Assimp9BVHLoader14ThrowExceptionIJRA27_KcEEEvDpOT_(ptr noundef nonnull align 8 dereferenceable(177) %this, ptr noundef nonnull align 1 dereferenceable(27) @.str.10) #22
          to label %invoke.cont2 unwind label %lpad

invoke.cont2:                                     ; preds = %if.then
  unreachable

lpad:                                             ; preds = %if.end, %if.then
  %0 = landingpad { ptr, i32 }
          cleanup
  call void @_ZNSt7__cxx1112basic_stringIcSt11char_traitsIcESaIcEED1Ev(ptr noundef nonnull align 8 dereferenceable(32) %root) #20
  resume { ptr, i32 } %0

if.end:                                           ; preds = %invoke.cont
  %call4 = invoke noundef ptr @_ZN6Assimp9BVHLoader8ReadNodeEv(ptr noundef nonnull align 8 dereferenceable(177) %this)
          to label %invoke.cont3 unwind label %lpad

invoke.cont3:                                     ; preds = %if.end
  %mRootNode = getelementptr inbounds i8, ptr %pScene, i64 8
  store ptr %call4, ptr %mRootNode, align 8
  call void @_ZNSt7__cxx1112basic_stringIcSt11char_traitsIcESaIcEED1Ev(ptr noundef nonnull align 8 dereferenceable(32) %root) #20
  ret void
}